target datalayout = "e-m:e-p270:32:32-p271:32:32-p272:64:64-i64:64-i128:128-f80:128-n8:16:32:64-S128"
target triple = "x86_64-unknown-linux-gnu"

%"class.std::__cxx11::basic_string" = type { %"struct.std::__cxx11::basic_string<char>::_Alloc_hider", i64, %union.anon.8 }
%"struct.std::__cxx11::basic_string<char>::_Alloc_hider" = type { ptr }
%union.anon.8 = type { i64, [8 x i8] }
%"class.Assimp::FBX::Element" = type { ptr, %"class.std::vector", ptr }
%"class.std::vector" = type { %"struct.std::_Vector_base" }
%"struct.std::_Vector_base" = type { %"struct.std::_Vector_base<const Assimp::FBX::Token *, std::allocator<const Assimp::FBX::Token *>>::_Vector_impl" }
%"struct.std::_Vector_base<const Assimp::FBX::Token *, std::allocator<const Assimp::FBX::Token *>>::_Vector_impl" = type { %"struct.std::_Vector_base<const Assimp::FBX::Token *, std::allocator<const Assimp::FBX::Token *>>::_Vector_impl_data" }
%"struct.std::_Vector_base<const Assimp::FBX::Token *, std::allocator<const Assimp::FBX::Token *>>::_Vector_impl_data" = type { ptr, ptr, ptr }
%"class.Assimp::Formatter::basic_formatter" = type { %"class.std::__cxx11::basic_ostringstream" }
%"class.std::__cxx11::basic_ostringstream" = type { %"class.std::basic_ostream.base", %"class.std::__cxx11::basic_stringbuf", %"class.std::basic_ios" }
%"class.std::basic_ostream.base" = type { ptr }
%"class.std::__cxx11::basic_stringbuf" = type { %"class.std::basic_streambuf", i32, %"class.std::__cxx11::basic_string" }
%"class.std::basic_streambuf" = type { ptr, ptr, ptr, ptr, ptr, ptr, ptr, %"class.std::locale" }
%"class.std::locale" = type { ptr }
%"class.std::basic_ios" = type { %"class.std::ios_base", ptr, i8, i8, ptr, ptr, ptr, ptr }
%"class.std::ios_base" = type { ptr, i64, i64, i32, i32, i32, ptr, %"struct.std::ios_base::_Words", [8 x %"struct.std::ios_base::_Words"], i32, ptr, %"class.std::locale" }
%"struct.std::ios_base::_Words" = type { ptr, i64 }

@.str.41 = private unnamed_addr constant [24 x i8] c"missing token at index \00", align 1

; Function Attrs: mustprogress nounwind uwtable
define linkonce_odr hidden noundef nonnull align 8 dereferenceable(8) ptr @_ZNKSt6vectorIPKN6Assimp3FBX5TokenESaIS4_EEixEm(ptr noundef nonnull align 8 dereferenceable(24) %this, i64 noundef %__n) #0 comdat align 2 {
entry:
  %this.addr = alloca ptr, align 8
  %__n.addr = alloca i64, align 8
  store ptr %this, ptr %this.addr, align 8
  store i64 %__n, ptr %__n.addr, align 8
  %this1 = load ptr, ptr %this.addr, align 8
  %_M_impl = getelementptr inbounds %"struct.std::_Vector_base", ptr %this1, i32 0, i32 0
  %_M_start = getelementptr inbounds %"struct.std::_Vector_base<const Assimp::FBX::Token *, std::allocator<const Assimp::FBX::Token *>>::_Vector_impl_data", ptr %_M_impl, i32 0, i32 0
  %0 = load ptr, ptr %_M_start, align 8
  %1 = load i64, ptr %__n.addr, align 8
  %add.ptr = getelementptr inbounds ptr, ptr %0, i64 %1
  ret ptr %add.ptr
}

; Function Attrs: mustprogress nounwind uwtable
define linkonce_odr hidden void @_ZN6Assimp9Formatter15basic_formatterIcSt11char_traitsIcESaIcEED2Ev(ptr noundef nonnull align 8 dereferenceable(376) %this) unnamed_addr #0 comdat align 2 {
entry:
  %this.addr = alloca ptr, align 8
  store ptr %this, ptr %this.addr, align 8
  %this1 = load ptr, ptr %this.addr, align 8
  %underlying = getelementptr inbounds %"class.Assimp::Formatter::basic_formatter", ptr %this1, i32 0, i32 0
  call void @_ZNSt7__cxx1119basic_ostringstreamIcSt11char_traitsIcESaIcEED1Ev(ptr noundef nonnull align 8 dereferenceable(112) %underlying) #5
  ret void
}

; Function Attrs: mustprogress uwtable
define linkonce_odr hidden void @_ZNK6Assimp9Formatter15basic_formatterIcSt11char_traitsIcESaIcEEcvNSt7__cxx1112basic_stringIcS3_S4_EEEv(ptr noalias sret(%"class.std::__cxx11::basic_string") align 8 %agg.result, ptr noundef nonnull align 8 dereferenceable(376) %this) #6 comdat align 2 {
entry:
  %result.ptr = alloca ptr, align 8
  %this.addr = alloca ptr, align 8
  store ptr %agg.result, ptr %result.ptr, align 8
  store ptr %this, ptr %this.addr, align 8
  %this1 = load ptr, ptr %this.addr, align 8
  %underlying = getelementptr inbounds %"class.Assimp::Formatter::basic_formatter", ptr %this1, i32 0, i32 0
  call void @_ZNKSt7__cxx1119basic_ostringstreamIcSt11char_traitsIcESaIcEE3strEv(ptr sret(%"class.std::__cxx11::basic_string") align 8 %agg.result, ptr noundef nonnull align 8 dereferenceable(112) %underlying)
  ret void
}

; Function Attrs: mustprogress uwtable
define linkonce_odr hidden noundef nonnull align 8 dereferenceable(376) ptr @_ZN6Assimp9Formatter15basic_formatterIcSt11char_traitsIcESaIcEElsIjTnPNSt9enable_ifIXntsr3std10is_base_ofISt9exceptionT_EE5valueEvE4typeELPv0EEERS5_RKS9_(ptr noundef nonnull align 8 dereferenceable(376) %this, ptr noundef nonnull align 4 dereferenceable(4) %s) #6 comdat align 2 {
entry:
  %this.addr = alloca ptr, align 8
  %s.addr = alloca ptr, align 8
  store ptr %this, ptr %this.addr, align 8
  store ptr %s, ptr %s.addr, align 8
  %this1 = load ptr, ptr %this.addr, align 8
  %underlying = getelementptr inbounds %"class.Assimp::Formatter::basic_formatter", ptr %this1, i32 0, i32 0
  %0 = load ptr, ptr %s.addr, align 8
  %1 = load i32, ptr %0, align 4
  %call = call noundef nonnull align 8 dereferenceable(8) ptr @_ZNSolsEj(ptr noundef nonnull align 8 dereferenceable(8) %underlying, i32 noundef %1)
  ret ptr %this1
}

; Function Attrs: mustprogress nounwind uwtable
define linkonce_odr hidden noundef i64 @_ZNKSt6vectorIPKN6Assimp3FBX5TokenESaIS4_EE4sizeEv(ptr noundef nonnull align 8 dereferenceable(24) %this) #0 comdat align 2 {
entry:
  %this.addr = alloca ptr, align 8
  store ptr %this, ptr %this.addr, align 8
  %this1 = load ptr, ptr %this.addr, align 8
  %_M_impl = getelementptr inbounds %"struct.std::_Vector_base", ptr %this1, i32 0, i32 0
  %_M_finish = getelementptr inbounds %"struct.std::_Vector_base<const Assimp::FBX::Token *, std::allocator<const Assimp::FBX::Token *>>::_Vector_impl_data", ptr %_M_impl, i32 0, i32 1
  %0 = load ptr, ptr %_M_finish, align 8
  %_M_impl2 = getelementptr inbounds %"struct.std::_Vector_base", ptr %this1, i32 0, i32 0
  %_M_start = getelementptr inbounds %"struct.std::_Vector_base<const Assimp::FBX::Token *, std::allocator<const Assimp::FBX::Token *>>::_Vector_impl_data", ptr %_M_impl2, i32 0, i32 0
  %1 = load ptr, ptr %_M_start, align 8
  %sub.ptr.lhs.cast = ptrtoint ptr %0 to i64
  %sub.ptr.rhs.cast = ptrtoint ptr %1 to i64
  %sub.ptr.sub = sub i64 %sub.ptr.lhs.cast, %sub.ptr.rhs.cast
  %sub.ptr.div = sdiv exact i64 %sub.ptr.sub, 8
  ret i64 %sub.ptr.div
}

; Function Attrs: mustprogress nounwind uwtable
define linkonce_odr hidden noundef nonnull align 8 dereferenceable(24) ptr @_ZNK6Assimp3FBX7Element6TokensEv(ptr noundef nonnull align 8 dereferenceable(40) %this) #0 comdat align 2 {
entry:
  %this.addr = alloca ptr, align 8
  store ptr %this, ptr %this.addr, align 8
  %this1 = load ptr, ptr %this.addr, align 8
  %tokens = getelementptr inbounds %"class.Assimp::FBX::Element", ptr %this1, i32 0, i32 1
  ret ptr %tokens
}

; Function Attrs: mustprogress uwtable
define hidden noundef nonnull align 8 dereferenceable(36) ptr @_ZN6Assimp3FBX16GetRequiredTokenERKNS0_7ElementEj(ptr noundef nonnull align 8 dereferenceable(40) %el, i32 noundef %index) #6 personality ptr @__gxx_personality_v0 {
entry:
  %el.addr = alloca ptr, align 8
  %index.addr = alloca i32, align 4
  %t = alloca ptr, align 8
  %ref.tmp = alloca %"class.std::__cxx11::basic_string", align 8
  %ref.tmp2 = alloca %"class.Assimp::Formatter::basic_formatter", align 8
  %exn.slot = alloca ptr, align 8
  %ehselector.slot = alloca i32, align 4
  store ptr %el, ptr %el.addr, align 8
  store i32 %index, ptr %index.addr, align 4
  %0 = load ptr, ptr %el.addr, align 8
  %call = call noundef nonnull align 8 dereferenceable(24) ptr @_ZNK6Assimp3FBX7Element6TokensEv(ptr noundef nonnull align 8 dereferenceable(40) %0)
  store ptr %call, ptr %t, align 8
  %1 = load i32, ptr %index.addr, align 4
  %conv = zext i32 %1 to i64
  %2 = load ptr, ptr %t, align 8
  %call1 = call noundef i64 @_ZNKSt6vectorIPKN6Assimp3FBX5TokenESaIS4_EE4sizeEv(ptr noundef nonnull align 8 dereferenceable(24) %2) #5
  %cmp = icmp uge i64 %conv, %call1
  br i1 %cmp, label %if.then, label %if.end

if.then:                                          ; preds = %entry
  call void @_ZN6Assimp9Formatter15basic_formatterIcSt11char_traitsIcESaIcEEC2IA24_cEERKT_(ptr noundef nonnull align 8 dereferenceable(376) %ref.tmp2, ptr noundef nonnull align 1 dereferenceable(24) @.str.41)
  %call3 = invoke noundef nonnull align 8 dereferenceable(376) ptr @_ZN6Assimp9Formatter15basic_formatterIcSt11char_traitsIcESaIcEElsIjTnPNSt9enable_ifIXntsr3std10is_base_ofISt9exceptionT_EE5valueEvE4typeELPv0EEERS5_RKS9_(ptr noundef nonnull align 8 dereferenceable(376) %ref.tmp2, ptr noundef nonnull align 4 dereferenceable(4) %index.addr)
          to label %invoke.cont unwind label %lpad

invoke.cont:                                      ; preds = %if.then
  invoke void @_ZNK6Assimp9Formatter15basic_formatterIcSt11char_traitsIcESaIcEEcvNSt7__cxx1112basic_stringIcS3_S4_EEEv(ptr sret(%"class.std::__cxx11::basic_string") align 8 %ref.tmp, ptr noundef nonnull align 8 dereferenceable(376) %call3)
          to label %invoke.cont4 unwind label %lpad

invoke.cont4:                                     ; preds = %invoke.cont
  %3 = load ptr, ptr %el.addr, align 8
  invoke void @_ZN12_GLOBAL__N_110ParseErrorERKNSt7__cxx1112basic_stringIcSt11char_traitsIcESaIcEEEPKN6Assimp3FBX7ElementE(ptr noundef nonnull align 8 dereferenceable(32) %ref.tmp, ptr noundef %3) #16
          to label %invoke.cont6 unwind label %lpad5

invoke.cont6:                                     ; preds = %invoke.cont4
  unreachable

lpad:                                             ; preds = %invoke.cont, %if.then
  %4 = landingpad { ptr, i32 }
          cleanup
  %5 = extractvalue { ptr, i32 } %4, 0
  store ptr %5, ptr %exn.slot, align 8
  %6 = extractvalue { ptr, i32 } %4, 1
  store i32 %6, ptr %ehselector.slot, align 4
  br label %ehcleanup

lpad5:                                            ; preds = %invoke.cont4
  %7 = landingpad { ptr, i32 }
          cleanup
  %8 = extractvalue { ptr, i32 } %7, 0
  store ptr %8, ptr %exn.slot, align 8
  %9 = extractvalue { ptr, i32 } %7, 1
  store i32 %9, ptr %ehselector.slot, align 4
  call void @_ZNSt7__cxx1112basic_stringIcSt11char_traitsIcESaIcEED1Ev(ptr noundef nonnull align 8 dereferenceable(32) %ref.tmp) #5
  br label %ehcleanup

ehcleanup:                                        ; preds = %lpad5, %lpad
  call void @_ZN6Assimp9Formatter15basic_formatterIcSt11char_traitsIcESaIcEED2Ev(ptr noundef nonnull align 8 dereferenceable(376) %ref.tmp2) #5
  br label %eh.resume

if.end:                                           ; preds = %entry
  %10 = load ptr, ptr %t, align 8
  %11 = load i32, ptr %index.addr, align 4
  %conv7 = zext i32 %11 to i64
  %call8 = call noundef nonnull align 8 dereferenceable(8) ptr @_ZNKSt6vectorIPKN6Assimp3FBX5TokenESaIS4_EEixEm(ptr noundef nonnull align 8 dereferenceable(24) %10, i64 noundef %conv7) #5
  %12 = load ptr, ptr %call8, align 8
  ret ptr %12

eh.resume:                                        ; preds = %ehcleanup
  %exn = load ptr, ptr %exn.slot, align 8
  %sel = load i32, ptr %ehselector.slot, align 4
  %lpad.val = insertvalue { ptr, i32 } poison, ptr %exn, 0
  %lpad.val9 = insertvalue { ptr, i32 } %lpad.val, i32 %sel, 1
  resume { ptr, i32 } %lpad.val9
}