; Function Attrs: mustprogress uwtable
define hidden noundef nonnull align 8 dereferenceable(36) ptr @_ZN6Assimp3FBX16GetRequiredTokenERKNS0_7ElementEj(ptr noundef nonnull align 8 dereferenceable(40) %el, i32 noundef %index) local_unnamed_addr #3 personality ptr @__gxx_personality_v0 {
entry:
  %ref.tmp = alloca %"class.std::__cxx11::basic_string", align 8
  %ref.tmp2 = alloca %"class.Assimp::Formatter::basic_formatter", align 8
  %tokens.i = getelementptr inbounds i8, ptr %el, i64 8
  %conv = zext i32 %index to i64
  %_M_finish.i = getelementptr inbounds i8, ptr %el, i64 16
  %0 = load ptr, ptr %_M_finish.i, align 8
  %1 = load ptr, ptr %tokens.i, align 8
  %sub.ptr.lhs.cast.i = ptrtoint ptr %0 to i64
  %sub.ptr.rhs.cast.i = ptrtoint ptr %1 to i64
  %sub.ptr.sub.i = sub i64 %sub.ptr.lhs.cast.i, %sub.ptr.rhs.cast.i
  %sub.ptr.div.i = ashr exact i64 %sub.ptr.sub.i, 3
  %cmp.not = icmp ugt i64 %sub.ptr.div.i, %conv
  br i1 %cmp.not, label %if.end, label %if.then

if.then:                                          ; preds = %entry
  call void @_ZN6Assimp9Formatter15basic_formatterIcSt11char_traitsIcESaIcEEC2IA24_cEERKT_(ptr noundef nonnull align 8 dereferenceable(376) %ref.tmp2, ptr noundef nonnull align 1 dereferenceable(24) @.str.41)
  %call.i4 = invoke noundef nonnull align 8 dereferenceable(8) ptr @_ZNSolsEj(ptr noundef nonnull align 8 dereferenceable(8) %ref.tmp2, i32 noundef %index)
          to label %invoke.cont unwind label %lpad

invoke.cont:                                      ; preds = %if.then
  invoke void @_ZNKSt7__cxx1119basic_ostringstreamIcSt11char_traitsIcESaIcEE3strEv(ptr nonnull sret(%"class.std::__cxx11::basic_string") align 8 %ref.tmp, ptr noundef nonnull align 8 dereferenceable(112) %ref.tmp2)
          to label %invoke.cont4 unwind label %lpad

invoke.cont4:                                     ; preds = %invoke.cont
  invoke fastcc void @_ZN12_GLOBAL__N_110ParseErrorERKNSt7__cxx1112basic_stringIcSt11char_traitsIcESaIcEEEPKN6Assimp3FBX7ElementE(ptr noundef nonnull align 8 dereferenceable(32) %ref.tmp, ptr noundef nonnull %el) #22
          to label %invoke.cont6 unwind label %lpad5

invoke.cont6:                                     ; preds = %invoke.cont4
  unreachable

lpad:                                             ; preds = %invoke.cont, %if.then
  %2 = landingpad { ptr, i32 }
          cleanup
  br label %ehcleanup

lpad5:                                            ; preds = %invoke.cont4
  %3 = landingpad { ptr, i32 }
          cleanup
  call void @_ZNSt7__cxx1112basic_stringIcSt11char_traitsIcESaIcEED1Ev(ptr noundef nonnull align 8 dereferenceable(32) %ref.tmp) #21
  br label %ehcleanup

ehcleanup:                                        ; preds = %lpad5, %lpad
  %.pn = phi { ptr, i32 } [ %3, %lpad5 ], [ %2, %lpad ]
  call void @_ZNSt7__cxx1119basic_ostringstreamIcSt11char_traitsIcESaIcEED1Ev(ptr noundef nonnull align 8 dereferenceable(112) %ref.tmp2) #21
  resume { ptr, i32 } %.pn

if.end:                                           ; preds = %entry
  %add.ptr.i = getelementptr inbounds ptr, ptr %1, i64 %conv
  %4 = load ptr, ptr %add.ptr.i, align 8
  ret ptr %4
}